target datalayout = "e-m:e-p270:32:32-p271:32:32-p272:64:64-i64:64-i128:128-f80:128-n8:16:32:64-S128"
target triple = "x86_64-pc-linux-gnu"

; Function Attrs: nounwind sspstrong uwtable
define internal ptr @iso2022jp_put_state(ptr noundef %0, ptr noundef %1, i32 noundef %2, i32 noundef %3) #0 {
  %5 = alloca ptr, align 8
  %6 = alloca ptr, align 8
  %7 = alloca i32, align 4
  %8 = alloca i32, align 4
  store ptr %0, ptr %5, align 8, !tbaa !10
  store ptr %1, ptr %6, align 8, !tbaa !10
  store i32 %2, ptr %7, align 4, !tbaa !15
  store i32 %3, ptr %8, align 4, !tbaa !15
  %9 = load i32, ptr %7, align 4, !tbaa !15
  %10 = load i32, ptr %8, align 4, !tbaa !15
  %11 = icmp ne i32 %9, %10
  br i1 %11, label %12, label %40

12:                                               ; preds = %4
  %13 = load ptr, ptr %6, align 8, !tbaa !10
  %14 = getelementptr inbounds nuw i8, ptr %13, i32 1
  store ptr %14, ptr %6, align 8, !tbaa !10
  store i8 27, ptr %13, align 1, !tbaa !12
  %15 = load i32, ptr %8, align 4, !tbaa !15
  switch i32 %15, label %31 [
    i32 0, label %16
    i32 3, label %21
    i32 1, label %26
  ]

16:                                               ; preds = %12
  %17 = load ptr, ptr %6, align 8, !tbaa !10
  %18 = getelementptr inbounds nuw i8, ptr %17, i32 1
  store ptr %18, ptr %6, align 8, !tbaa !10
  store i8 40, ptr %17, align 1, !tbaa !12
  %19 = load ptr, ptr %6, align 8, !tbaa !10
  %20 = getelementptr inbounds nuw i8, ptr %19, i32 1
  store ptr %20, ptr %6, align 8, !tbaa !10
  store i8 66, ptr %19, align 1, !tbaa !12
  br label %36

21:                                               ; preds = %12
  %22 = load ptr, ptr %6, align 8, !tbaa !10
  %23 = getelementptr inbounds nuw i8, ptr %22, i32 1
  store ptr %23, ptr %6, align 8, !tbaa !10
  store i8 40, ptr %22, align 1, !tbaa !12
  %24 = load ptr, ptr %6, align 8, !tbaa !10
  %25 = getelementptr inbounds nuw i8, ptr %24, i32 1
  store ptr %25, ptr %6, align 8, !tbaa !10
  store i8 73, ptr %24, align 1, !tbaa !12
  br label %36

26:                                               ; preds = %12
  %27 = load ptr, ptr %6, align 8, !tbaa !10
  %28 = getelementptr inbounds nuw i8, ptr %27, i32 1
  store ptr %28, ptr %6, align 8, !tbaa !10
  store i8 36, ptr %27, align 1, !tbaa !12
  %29 = load ptr, ptr %6, align 8, !tbaa !10
  %30 = getelementptr inbounds nuw i8, ptr %29, i32 1
  store ptr %30, ptr %6, align 8, !tbaa !10
  store i8 64, ptr %29, align 1, !tbaa !12
  br label %36

31:                                               ; preds = %12
  %32 = load ptr, ptr %6, align 8, !tbaa !10
  %33 = getelementptr inbounds nuw i8, ptr %32, i32 1
  store ptr %33, ptr %6, align 8, !tbaa !10
  store i8 36, ptr %32, align 1, !tbaa !12
  %34 = load ptr, ptr %6, align 8, !tbaa !10
  %35 = getelementptr inbounds nuw i8, ptr %34, i32 1
  store ptr %35, ptr %6, align 8, !tbaa !10
  store i8 66, ptr %34, align 1, !tbaa !12
  br label %36

36:                                               ; preds = %31, %26, %21, %16
  %37 = load i32, ptr %8, align 4, !tbaa !15
  %38 = trunc i32 %37 to i8
  %39 = load ptr, ptr %5, align 8, !tbaa !10
  store i8 %38, ptr %39, align 1, !tbaa !12
  br label %40

40:                                               ; preds = %36, %4
  %41 = load ptr, ptr %6, align 8, !tbaa !10
  ret ptr %41
}

; Function Attrs: nounwind sspstrong uwtable
define internal i64 @fun_so_iso2022jp_encoder(ptr noundef %0, ptr noundef %1, i64 noundef %2, ptr noundef %3, i64 noundef %4) #0 {
  %6 = alloca ptr, align 8
  %7 = alloca ptr, align 8
  %8 = alloca i64, align 8
  %9 = alloca ptr, align 8
  %10 = alloca i64, align 8
  %11 = alloca ptr, align 8
  %12 = alloca ptr, align 8
  %13 = alloca i32, align 4
  store ptr %0, ptr %6, align 8, !tbaa !6
  store ptr %1, ptr %7, align 8, !tbaa !10
  store i64 %2, ptr %8, align 8, !tbaa !13
  store ptr %3, ptr %9, align 8, !tbaa !10
  store i64 %4, ptr %10, align 8, !tbaa !13
  call void @llvm.lifetime.start.p0(i64 8, ptr %11) #3
  %14 = load ptr, ptr %6, align 8, !tbaa !6
  store ptr %14, ptr %11, align 8, !tbaa !10
  call void @llvm.lifetime.start.p0(i64 8, ptr %12) #3
  %15 = load ptr, ptr %9, align 8, !tbaa !10
  store ptr %15, ptr %12, align 8, !tbaa !10
  call void @llvm.lifetime.start.p0(i64 4, ptr %13) #3
  %16 = load i64, ptr %8, align 8, !tbaa !13
  %17 = icmp eq i64 %16, 1
  br i1 %17, label %18, label %19

18:                                               ; preds = %5
  store i32 0, ptr %13, align 4, !tbaa !15
  br label %28

19:                                               ; preds = %5
  %20 = load ptr, ptr %7, align 8, !tbaa !10
  %21 = getelementptr inbounds i8, ptr %20, i64 0
  %22 = load i8, ptr %21, align 1, !tbaa !12
  %23 = zext i8 %22 to i32
  %24 = icmp eq i32 %23, 144
  br i1 %24, label %25, label %26

25:                                               ; preds = %19
  store i32 1, ptr %13, align 4, !tbaa !15
  br label %27

26:                                               ; preds = %19
  store i32 2, ptr %13, align 4, !tbaa !15
  br label %27

27:                                               ; preds = %26, %25
  br label %28

28:                                               ; preds = %27, %18
  %29 = load ptr, ptr %11, align 8, !tbaa !10
  %30 = load ptr, ptr %9, align 8, !tbaa !10
  %31 = load ptr, ptr %11, align 8, !tbaa !10
  %32 = load i8, ptr %31, align 1, !tbaa !12
  %33 = zext i8 %32 to i32
  %34 = load i32, ptr %13, align 4, !tbaa !15
  %35 = call ptr @iso2022jp_put_state(ptr noundef %29, ptr noundef %30, i32 noundef %33, i32 noundef %34)
  store ptr %35, ptr %9, align 8, !tbaa !10
  %36 = load i64, ptr %8, align 8, !tbaa !13
  %37 = icmp eq i64 %36, 1
  br i1 %37, label %38, label %47

38:                                               ; preds = %28
  %39 = load ptr, ptr %7, align 8, !tbaa !10
  %40 = getelementptr inbounds i8, ptr %39, i64 0
  %41 = load i8, ptr %40, align 1, !tbaa !12
  %42 = zext i8 %41 to i32
  %43 = and i32 %42, 127
  %44 = trunc i32 %43 to i8
  %45 = load ptr, ptr %9, align 8, !tbaa !10
  %46 = getelementptr inbounds nuw i8, ptr %45, i32 1
  store ptr %46, ptr %9, align 8, !tbaa !10
  store i8 %44, ptr %45, align 1, !tbaa !12
  br label %64

47:                                               ; preds = %28
  %48 = load ptr, ptr %7, align 8, !tbaa !10
  %49 = getelementptr inbounds i8, ptr %48, i64 1
  %50 = load i8, ptr %49, align 1, !tbaa !12
  %51 = zext i8 %50 to i32
  %52 = and i32 %51, 127
  %53 = trunc i32 %52 to i8
  %54 = load ptr, ptr %9, align 8, !tbaa !10
  %55 = getelementptr inbounds nuw i8, ptr %54, i32 1
  store ptr %55, ptr %9, align 8, !tbaa !10
  store i8 %53, ptr %54, align 1, !tbaa !12
  %56 = load ptr, ptr %7, align 8, !tbaa !10
  %57 = getelementptr inbounds i8, ptr %56, i64 2
  %58 = load i8, ptr %57, align 1, !tbaa !12
  %59 = zext i8 %58 to i32
  %60 = and i32 %59, 127
  %61 = trunc i32 %60 to i8
  %62 = load ptr, ptr %9, align 8, !tbaa !10
  %63 = getelementptr inbounds nuw i8, ptr %62, i32 1
  store ptr %63, ptr %9, align 8, !tbaa !10
  store i8 %61, ptr %62, align 1, !tbaa !12
  br label %64

64:                                               ; preds = %47, %38
  %65 = load ptr, ptr %9, align 8, !tbaa !10
  %66 = load ptr, ptr %12, align 8, !tbaa !10
  %67 = ptrtoint ptr %65 to i64
  %68 = ptrtoint ptr %66 to i64
  %69 = sub i64 %67, %68
  call void @llvm.lifetime.end.p0(i64 4, ptr %13) #3
  call void @llvm.lifetime.end.p0(i64 8, ptr %12) #3
  call void @llvm.lifetime.end.p0(i64 8, ptr %11) #3
  ret i64 %69
}