; Function Attrs: mustprogress nofree norecurse nosync nounwind sspstrong willreturn memory(argmem: readwrite) uwtable
define internal i64 @fun_so_iso2022jp_encoder(ptr noundef captures(none) %0, ptr noundef readonly captures(none) %1, i64 noundef %2, ptr noundef %3, i64 %4) #4 {
  %6 = icmp eq i64 %2, 1
  br i1 %6, label %10, label %7

7:                                                ; preds = %5
  %8 = load i8, ptr %1, align 1, !tbaa !6
  %9 = icmp eq i8 %8, -112
  %. = select i1 %9, i32 1, i32 2
  br label %10

10:                                               ; preds = %7, %5
  %.0 = phi i32 [ 0, %5 ], [ %., %7 ]
  %11 = load i8, ptr %0, align 1, !tbaa !6
  %12 = zext i8 %11 to i32
  %.not.i = icmp eq i32 %.0, %12
  br i1 %.not.i, label %iso2022jp_put_state.exit, label %switch.lookup

switch.lookup:                                    ; preds = %10
  %13 = getelementptr inbounds nuw i8, ptr %3, i64 1
  store i8 27, ptr %3, align 1, !tbaa !6
  %14 = getelementptr inbounds nuw i8, ptr %3, i64 2
  %switch.cast = trunc nuw nsw i32 %.0 to i24
  %switch.shiftamt = shl nuw nsw i24 %switch.cast, 3
  %switch.downshift = lshr i24 2368552, %switch.shiftamt
  %switch.masked = trunc i24 %switch.downshift to i8
  %switch.cast17 = trunc nuw nsw i32 %.0 to i24
  %switch.shiftamt18 = shl nuw nsw i24 %switch.cast17, 3
  %switch.downshift19 = lshr i24 4341826, %switch.shiftamt18
  %switch.masked20 = trunc i24 %switch.downshift19 to i8
  store i8 %switch.masked, ptr %13, align 1, !tbaa !6
  store i8 %switch.masked20, ptr %14, align 1, !tbaa !6
  %.1.i = getelementptr inbounds nuw i8, ptr %3, i64 3
  %15 = trunc nuw nsw i32 %.0 to i8
  store i8 %15, ptr %0, align 1, !tbaa !6
  br label %iso2022jp_put_state.exit

iso2022jp_put_state.exit:                         ; preds = %10, %switch.lookup
  %.0.i = phi ptr [ %.1.i, %switch.lookup ], [ %3, %10 ]
  br i1 %6, label %16, label %20

16:                                               ; preds = %iso2022jp_put_state.exit
  %17 = load i8, ptr %1, align 1, !tbaa !6
  %18 = and i8 %17, 127
  %19 = getelementptr inbounds nuw i8, ptr %.0.i, i64 1
  store i8 %18, ptr %.0.i, align 1, !tbaa !6
  br label %29

20:                                               ; preds = %iso2022jp_put_state.exit
  %21 = getelementptr inbounds nuw i8, ptr %1, i64 1
  %22 = load i8, ptr %21, align 1, !tbaa !6
  %23 = and i8 %22, 127
  %24 = getelementptr inbounds nuw i8, ptr %.0.i, i64 1
  store i8 %23, ptr %.0.i, align 1, !tbaa !6
  %25 = getelementptr inbounds nuw i8, ptr %1, i64 2
  %26 = load i8, ptr %25, align 1, !tbaa !6
  %27 = and i8 %26, 127
  %28 = getelementptr inbounds nuw i8, ptr %.0.i, i64 2
  store i8 %27, ptr %24, align 1, !tbaa !6
  br label %29

29:                                               ; preds = %20, %16
  %.016 = phi ptr [ %19, %16 ], [ %28, %20 ]
  %30 = ptrtoint ptr %.016 to i64
  %31 = ptrtoint ptr %3 to i64
  %32 = sub i64 %30, %31
  ret i64 %32
}